target datalayout = "e-m:e-p270:32:32-p271:32:32-p272:64:64-i64:64-i128:128-f80:128-n8:16:32:64-S128"
target triple = "x86_64-pc-linux-gnu"

%struct.IndexScanState = type { %struct.ScanState, ptr, ptr, ptr, i32, ptr, i32, ptr, i32, i8, ptr, ptr, ptr, ptr, i8, ptr, ptr, ptr, ptr, ptr, i64 }
%struct.ScanState = type { %struct.PlanState, ptr, ptr, ptr }
%struct.PlanState = type { i32, ptr, ptr, ptr, ptr, ptr, ptr, ptr, ptr, ptr, ptr, ptr, ptr, ptr, ptr, ptr, ptr, ptr, i8, ptr, ptr, ptr, ptr, ptr, i8, i8, i8, i8, i8, i8, i8, i8 }
%struct.ExprContext = type { i32, ptr, ptr, ptr, ptr, ptr, ptr, ptr, ptr, ptr, i64, i8, i64, i8, ptr, ptr, ptr, ptr }
%struct.pairingheap = type { ptr, ptr, ptr }
%struct.IndexRuntimeKeyInfo = type { ptr, ptr, i8 }
%struct.ScanKeyData = type { i32, i16, i16, i32, i32, %struct.FmgrInfo, i64 }
%struct.FmgrInfo = type { ptr, i32, i16, i8, i8, i8, ptr, ptr, ptr }
%struct.ReorderTuple = type { %struct.pairingheap_node, ptr, ptr, ptr }
%struct.pairingheap_node = type { ptr, ptr, ptr }
%struct.ExprState = type { i32, i8, i8, i64, ptr, ptr, ptr, ptr, ptr, i32, i32, ptr, ptr, ptr, ptr, ptr, ptr, ptr }

@CurrentMemoryContext = external global ptr, align 8

; Function Attrs: inlinehint nounwind uwtable
define internal i64 @PointerGetDatum(ptr noundef %0) #3 {
  %2 = alloca ptr, align 8
  store ptr %0, ptr %2, align 8
  %3 = load ptr, ptr %2, align 8
  %4 = ptrtoint ptr %3 to i64
  ret i64 %4
}

; Function Attrs: inlinehint nounwind uwtable
define internal ptr @DatumGetPointer(i64 noundef %0) #3 {
  %2 = alloca i64, align 8
  store i64 %0, ptr %2, align 8
  %3 = load i64, ptr %2, align 8
  %4 = inttoptr i64 %3 to ptr
  ret ptr %4
}

; Function Attrs: inlinehint nounwind uwtable
define internal i64 @ExecEvalExpr(ptr noundef %0, ptr noundef %1, ptr noundef %2) #3 {
  %4 = alloca ptr, align 8
  %5 = alloca ptr, align 8
  %6 = alloca ptr, align 8
  store ptr %0, ptr %4, align 8
  store ptr %1, ptr %5, align 8
  store ptr %2, ptr %6, align 8
  %7 = load ptr, ptr %4, align 8
  %8 = getelementptr inbounds nuw %struct.ExprState, ptr %7, i32 0, i32 6
  %9 = load ptr, ptr %8, align 8
  %10 = load ptr, ptr %4, align 8
  %11 = load ptr, ptr %5, align 8
  %12 = load ptr, ptr %6, align 8
  %13 = call i64 %9(ptr noundef %10, ptr noundef %11, ptr noundef %12)
  ret i64 %13
}

; Function Attrs: inlinehint nounwind uwtable
define internal ptr @MemoryContextSwitchTo(ptr noundef %0) #3 {
  %2 = alloca ptr, align 8
  %3 = alloca ptr, align 8
  store ptr %0, ptr %2, align 8
  call void @llvm.lifetime.start.p0(i64 8, ptr %3) #7
  %4 = load ptr, ptr @CurrentMemoryContext, align 8
  store ptr %4, ptr %3, align 8
  %5 = load ptr, ptr %2, align 8
  store ptr %5, ptr @CurrentMemoryContext, align 8
  %6 = load ptr, ptr %3, align 8
  call void @llvm.lifetime.end.p0(i64 8, ptr %3) #7
  ret ptr %6
}

; Function Attrs: nounwind uwtable
define internal ptr @reorderqueue_pop(ptr noundef %0) #0 {
  %2 = alloca ptr, align 8
  %3 = alloca ptr, align 8
  %4 = alloca ptr, align 8
  %5 = alloca i32, align 4
  store ptr %0, ptr %2, align 8
  call void @llvm.lifetime.start.p0(i64 8, ptr %3) #7
  call void @llvm.lifetime.start.p0(i64 8, ptr %4) #7
  call void @llvm.lifetime.start.p0(i64 4, ptr %5) #7
  %6 = load ptr, ptr %2, align 8
  %7 = getelementptr inbounds nuw %struct.IndexScanState, ptr %6, i32 0, i32 13
  %8 = load ptr, ptr %7, align 8
  %9 = call ptr @pairingheap_remove_first(ptr noundef %8)
  store ptr %9, ptr %4, align 8
  %10 = load ptr, ptr %4, align 8
  %11 = getelementptr inbounds nuw %struct.ReorderTuple, ptr %10, i32 0, i32 1
  %12 = load ptr, ptr %11, align 8
  store ptr %12, ptr %3, align 8
  store i32 0, ptr %5, align 4
  br label %13

13:                                               ; preds = %47, %1
  %14 = load i32, ptr %5, align 4
  %15 = load ptr, ptr %2, align 8
  %16 = getelementptr inbounds nuw %struct.IndexScanState, ptr %15, i32 0, i32 6
  %17 = load i32, ptr %16, align 8
  %18 = icmp slt i32 %14, %17
  br i1 %18, label %19, label %50

19:                                               ; preds = %13
  %20 = load ptr, ptr %2, align 8
  %21 = getelementptr inbounds nuw %struct.IndexScanState, ptr %20, i32 0, i32 18
  %22 = load ptr, ptr %21, align 8
  %23 = load i32, ptr %5, align 4
  %24 = sext i32 %23 to i64
  %25 = getelementptr inbounds i8, ptr %22, i64 %24
  %26 = load i8, ptr %25, align 1, !range !6, !noundef !7
  %27 = trunc i8 %26 to i1
  br i1 %27, label %46, label %28

28:                                               ; preds = %19
  %29 = load ptr, ptr %4, align 8
  %30 = getelementptr inbounds nuw %struct.ReorderTuple, ptr %29, i32 0, i32 3
  %31 = load ptr, ptr %30, align 8
  %32 = load i32, ptr %5, align 4
  %33 = sext i32 %32 to i64
  %34 = getelementptr inbounds i8, ptr %31, i64 %33
  %35 = load i8, ptr %34, align 1, !range !6, !noundef !7
  %36 = trunc i8 %35 to i1
  br i1 %36, label %46, label %37

37:                                               ; preds = %28
  %38 = load ptr, ptr %4, align 8
  %39 = getelementptr inbounds nuw %struct.ReorderTuple, ptr %38, i32 0, i32 2
  %40 = load ptr, ptr %39, align 8
  %41 = load i32, ptr %5, align 4
  %42 = sext i32 %41 to i64
  %43 = getelementptr inbounds i64, ptr %40, i64 %42
  %44 = load i64, ptr %43, align 8
  %45 = call ptr @DatumGetPointer(i64 noundef %44)
  call void @pfree(ptr noundef %45)
  br label %46

46:                                               ; preds = %37, %28, %19
  br label %47

47:                                               ; preds = %46
  %48 = load i32, ptr %5, align 4
  %49 = add i32 %48, 1
  store i32 %49, ptr %5, align 4
  br label %13, !llvm.loop !9

50:                                               ; preds = %13
  %51 = load ptr, ptr %4, align 8
  %52 = getelementptr inbounds nuw %struct.ReorderTuple, ptr %51, i32 0, i32 2
  %53 = load ptr, ptr %52, align 8
  call void @pfree(ptr noundef %53)
  %54 = load ptr, ptr %4, align 8
  %55 = getelementptr inbounds nuw %struct.ReorderTuple, ptr %54, i32 0, i32 3
  %56 = load ptr, ptr %55, align 8
  call void @pfree(ptr noundef %56)
  %57 = load ptr, ptr %4, align 8
  call void @pfree(ptr noundef %57)
  %58 = load ptr, ptr %3, align 8
  call void @llvm.lifetime.end.p0(i64 4, ptr %5) #7
  call void @llvm.lifetime.end.p0(i64 8, ptr %4) #7
  call void @llvm.lifetime.end.p0(i64 8, ptr %3) #7
  ret ptr %58
}

; Function Attrs: nounwind uwtable
define dso_local void @ExecIndexEvalRuntimeKeys(ptr noundef %0, ptr noundef %1, i32 noundef %2) #0 {
  %4 = alloca ptr, align 8
  %5 = alloca ptr, align 8
  %6 = alloca i32, align 4
  %7 = alloca i32, align 4
  %8 = alloca ptr, align 8
  %9 = alloca ptr, align 8
  %10 = alloca ptr, align 8
  %11 = alloca i64, align 8
  %12 = alloca i8, align 1
  store ptr %0, ptr %4, align 8
  store ptr %1, ptr %5, align 8
  store i32 %2, ptr %6, align 4
  call void @llvm.lifetime.start.p0(i64 4, ptr %7) #7
  call void @llvm.lifetime.start.p0(i64 8, ptr %8) #7
  %13 = load ptr, ptr %4, align 8
  %14 = getelementptr inbounds nuw %struct.ExprContext, ptr %13, i32 0, i32 5
  %15 = load ptr, ptr %14, align 8
  %16 = call ptr @MemoryContextSwitchTo(ptr noundef %15)
  store ptr %16, ptr %8, align 8
  store i32 0, ptr %7, align 4
  br label %17

17:                                               ; preds = %69, %3
  %18 = load i32, ptr %7, align 4
  %19 = load i32, ptr %6, align 4
  %20 = icmp slt i32 %18, %19
  br i1 %20, label %21, label %72

21:                                               ; preds = %17
  call void @llvm.lifetime.start.p0(i64 8, ptr %9) #7
  %22 = load ptr, ptr %5, align 8
  %23 = load i32, ptr %7, align 4
  %24 = sext i32 %23 to i64
  %25 = getelementptr inbounds %struct.IndexRuntimeKeyInfo, ptr %22, i64 %24
  %26 = getelementptr inbounds nuw %struct.IndexRuntimeKeyInfo, ptr %25, i32 0, i32 0
  %27 = load ptr, ptr %26, align 8
  store ptr %27, ptr %9, align 8
  call void @llvm.lifetime.start.p0(i64 8, ptr %10) #7
  %28 = load ptr, ptr %5, align 8
  %29 = load i32, ptr %7, align 4
  %30 = sext i32 %29 to i64
  %31 = getelementptr inbounds %struct.IndexRuntimeKeyInfo, ptr %28, i64 %30
  %32 = getelementptr inbounds nuw %struct.IndexRuntimeKeyInfo, ptr %31, i32 0, i32 1
  %33 = load ptr, ptr %32, align 8
  store ptr %33, ptr %10, align 8
  call void @llvm.lifetime.start.p0(i64 8, ptr %11) #7
  call void @llvm.lifetime.start.p0(i64 1, ptr %12) #7
  %34 = load ptr, ptr %10, align 8
  %35 = load ptr, ptr %4, align 8
  %36 = call i64 @ExecEvalExpr(ptr noundef %34, ptr noundef %35, ptr noundef %12)
  store i64 %36, ptr %11, align 8
  %37 = load i8, ptr %12, align 1, !range !6, !noundef !7
  %38 = trunc i8 %37 to i1
  br i1 %38, label %39, label %47

39:                                               ; preds = %21
  %40 = load i64, ptr %11, align 8
  %41 = load ptr, ptr %9, align 8
  %42 = getelementptr inbounds nuw %struct.ScanKeyData, ptr %41, i32 0, i32 6
  store i64 %40, ptr %42, align 8
  %43 = load ptr, ptr %9, align 8
  %44 = getelementptr inbounds nuw %struct.ScanKeyData, ptr %43, i32 0, i32 0
  %45 = load i32, ptr %44, align 8
  %46 = or i32 %45, 1
  store i32 %46, ptr %44, align 8
  br label %68

47:                                               ; preds = %21
  %48 = load ptr, ptr %5, align 8
  %49 = load i32, ptr %7, align 4
  %50 = sext i32 %49 to i64
  %51 = getelementptr inbounds %struct.IndexRuntimeKeyInfo, ptr %48, i64 %50
  %52 = getelementptr inbounds nuw %struct.IndexRuntimeKeyInfo, ptr %51, i32 0, i32 2
  %53 = load i8, ptr %52, align 8, !range !6, !noundef !7
  %54 = trunc i8 %53 to i1
  br i1 %54, label %55, label %60

55:                                               ; preds = %47
  %56 = load i64, ptr %11, align 8
  %57 = call ptr @DatumGetPointer(i64 noundef %56)
  %58 = call ptr @pg_detoast_datum(ptr noundef %57)
  %59 = call i64 @PointerGetDatum(ptr noundef %58)
  store i64 %59, ptr %11, align 8
  br label %60

60:                                               ; preds = %55, %47
  %61 = load i64, ptr %11, align 8
  %62 = load ptr, ptr %9, align 8
  %63 = getelementptr inbounds nuw %struct.ScanKeyData, ptr %62, i32 0, i32 6
  store i64 %61, ptr %63, align 8
  %64 = load ptr, ptr %9, align 8
  %65 = getelementptr inbounds nuw %struct.ScanKeyData, ptr %64, i32 0, i32 0
  %66 = load i32, ptr %65, align 8
  %67 = and i32 %66, -2
  store i32 %67, ptr %65, align 8
  br label %68

68:                                               ; preds = %60, %39
  call void @llvm.lifetime.end.p0(i64 1, ptr %12) #7
  call void @llvm.lifetime.end.p0(i64 8, ptr %11) #7
  call void @llvm.lifetime.end.p0(i64 8, ptr %10) #7
  call void @llvm.lifetime.end.p0(i64 8, ptr %9) #7
  br label %69

69:                                               ; preds = %68
  %70 = load i32, ptr %7, align 4
  %71 = add i32 %70, 1
  store i32 %71, ptr %7, align 4
  br label %17, !llvm.loop !8

72:                                               ; preds = %17
  %73 = load ptr, ptr %8, align 8
  %74 = call ptr @MemoryContextSwitchTo(ptr noundef %73)
  call void @llvm.lifetime.end.p0(i64 8, ptr %8) #7
  call void @llvm.lifetime.end.p0(i64 4, ptr %7) #7
  ret void
}

; Function Attrs: nounwind uwtable
define dso_local void @ExecReScanIndexScan(ptr noundef %0) #0 {
  %2 = alloca ptr, align 8
  %3 = alloca ptr, align 8
  %4 = alloca ptr, align 8
  store ptr %0, ptr %2, align 8
  %5 = load ptr, ptr %2, align 8
  %6 = getelementptr inbounds nuw %struct.IndexScanState, ptr %5, i32 0, i32 8
  %7 = load i32, ptr %6, align 8
  %8 = icmp ne i32 %7, 0
  br i1 %8, label %9, label %23

9:                                                ; preds = %1
  call void @llvm.lifetime.start.p0(i64 8, ptr %3) #7
  %10 = load ptr, ptr %2, align 8
  %11 = getelementptr inbounds nuw %struct.IndexScanState, ptr %10, i32 0, i32 10
  %12 = load ptr, ptr %11, align 8
  store ptr %12, ptr %3, align 8
  %13 = load ptr, ptr %3, align 8
  %14 = getelementptr inbounds nuw %struct.ExprContext, ptr %13, i32 0, i32 5
  %15 = load ptr, ptr %14, align 8
  call void @MemoryContextReset(ptr noundef %15)
  %16 = load ptr, ptr %3, align 8
  %17 = load ptr, ptr %2, align 8
  %18 = getelementptr inbounds nuw %struct.IndexScanState, ptr %17, i32 0, i32 7
  %19 = load ptr, ptr %18, align 8
  %20 = load ptr, ptr %2, align 8
  %21 = getelementptr inbounds nuw %struct.IndexScanState, ptr %20, i32 0, i32 8
  %22 = load i32, ptr %21, align 8
  call void @ExecIndexEvalRuntimeKeys(ptr noundef %16, ptr noundef %19, i32 noundef %22)
  call void @llvm.lifetime.end.p0(i64 8, ptr %3) #7
  br label %23

23:                                               ; preds = %9, %1
  %24 = load ptr, ptr %2, align 8
  %25 = getelementptr inbounds nuw %struct.IndexScanState, ptr %24, i32 0, i32 9
  store i8 1, ptr %25, align 4
  %26 = load ptr, ptr %2, align 8
  %27 = getelementptr inbounds nuw %struct.IndexScanState, ptr %26, i32 0, i32 13
  %28 = load ptr, ptr %27, align 8
  %29 = icmp ne ptr %28, null
  br i1 %29, label %30, label %44

30:                                               ; preds = %23
  call void @llvm.lifetime.start.p0(i64 8, ptr %4) #7
  br label %31

31:                                               ; preds = %39, %30
  %32 = load ptr, ptr %2, align 8
  %33 = getelementptr inbounds nuw %struct.IndexScanState, ptr %32, i32 0, i32 13
  %34 = load ptr, ptr %33, align 8
  %35 = getelementptr inbounds nuw %struct.pairingheap, ptr %34, i32 0, i32 2
  %36 = load ptr, ptr %35, align 8
  %37 = icmp eq ptr %36, null
  %38 = xor i1 %37, true
  br i1 %38, label %39, label %43

39:                                               ; preds = %31
  %40 = load ptr, ptr %2, align 8
  %41 = call ptr @reorderqueue_pop(ptr noundef %40)
  store ptr %41, ptr %4, align 8
  %42 = load ptr, ptr %4, align 8
  call void @heap_freetuple(ptr noundef %42)
  br label %31, !llvm.loop !4

43:                                               ; preds = %31
  call void @llvm.lifetime.end.p0(i64 8, ptr %4) #7
  br label %44

44:                                               ; preds = %43, %23
  %45 = load ptr, ptr %2, align 8
  %46 = getelementptr inbounds nuw %struct.IndexScanState, ptr %45, i32 0, i32 12
  %47 = load ptr, ptr %46, align 8
  %48 = icmp ne ptr %47, null
  br i1 %48, label %49, label %65

49:                                               ; preds = %44
  %50 = load ptr, ptr %2, align 8
  %51 = getelementptr inbounds nuw %struct.IndexScanState, ptr %50, i32 0, i32 12
  %52 = load ptr, ptr %51, align 8
  %53 = load ptr, ptr %2, align 8
  %54 = getelementptr inbounds nuw %struct.IndexScanState, ptr %53, i32 0, i32 3
  %55 = load ptr, ptr %54, align 8
  %56 = load ptr, ptr %2, align 8
  %57 = getelementptr inbounds nuw %struct.IndexScanState, ptr %56, i32 0, i32 4
  %58 = load i32, ptr %57, align 8
  %59 = load ptr, ptr %2, align 8
  %60 = getelementptr inbounds nuw %struct.IndexScanState, ptr %59, i32 0, i32 5
  %61 = load ptr, ptr %60, align 8
  %62 = load ptr, ptr %2, align 8
  %63 = getelementptr inbounds nuw %struct.IndexScanState, ptr %62, i32 0, i32 6
  %64 = load i32, ptr %63, align 8
  call void @index_rescan(ptr noundef %52, ptr noundef %55, i32 noundef %58, ptr noundef %61, i32 noundef %64)
  br label %65

65:                                               ; preds = %49, %44
  %66 = load ptr, ptr %2, align 8
  %67 = getelementptr inbounds nuw %struct.IndexScanState, ptr %66, i32 0, i32 14
  store i8 0, ptr %67, align 8
  %68 = load ptr, ptr %2, align 8
  %69 = getelementptr inbounds nuw %struct.IndexScanState, ptr %68, i32 0, i32 0
  call void @ExecScanReScan(ptr noundef %69)
  ret void
}