; Function Attrs: nounwind uwtable
define dso_local void @ExecReScanIndexScan(ptr noundef %0) local_unnamed_addr #0 {
  %2 = alloca i8, align 1
  %3 = getelementptr inbounds nuw i8, ptr %0, i64 280
  %4 = load i32, ptr %3, align 8
  %.not = icmp eq i32 %4, 0
  br i1 %.not, label %42, label %5

5:                                                ; preds = %1
  %6 = getelementptr inbounds nuw i8, ptr %0, i64 288
  %7 = load ptr, ptr %6, align 8
  %8 = getelementptr inbounds nuw i8, ptr %7, i64 40
  %9 = load ptr, ptr %8, align 8
  tail call void @MemoryContextReset(ptr noundef %9) #7
  %10 = getelementptr inbounds nuw i8, ptr %0, i64 272
  %11 = load ptr, ptr %10, align 8
  %12 = load i32, ptr %3, align 8
  %13 = load ptr, ptr %8, align 8
  %14 = load ptr, ptr @CurrentMemoryContext, align 8
  store ptr %13, ptr @CurrentMemoryContext, align 8
  %15 = icmp sgt i32 %12, 0
  br i1 %15, label %.lr.ph.preheader.i, label %ExecIndexEvalRuntimeKeys.exit

.lr.ph.preheader.i:                               ; preds = %5
  %wide.trip.count.i = zext nneg i32 %12 to i64
  br label %.lr.ph.i

.lr.ph.i:                                         ; preds = %41, %.lr.ph.preheader.i
  %indvars.iv.i = phi i64 [ 0, %.lr.ph.preheader.i ], [ %indvars.iv.next.i, %41 ]
  %16 = getelementptr inbounds nuw %struct.IndexRuntimeKeyInfo, ptr %11, i64 %indvars.iv.i
  %17 = load ptr, ptr %16, align 8
  %18 = getelementptr inbounds nuw i8, ptr %16, i64 8
  %19 = load ptr, ptr %18, align 8
  call void @llvm.lifetime.start.p0(i64 1, ptr nonnull %2) #7
  %20 = getelementptr inbounds nuw i8, ptr %19, i64 32
  %21 = load ptr, ptr %20, align 8
  %22 = call i64 %21(ptr noundef %19, ptr noundef %7, ptr noundef nonnull %2) #7
  %23 = load i8, ptr %2, align 1, !range !4, !noundef !5
  %24 = trunc nuw i8 %23 to i1
  br i1 %24, label %25, label %29

25:                                               ; preds = %.lr.ph.i
  %26 = getelementptr inbounds nuw i8, ptr %17, i64 64
  store i64 %22, ptr %26, align 8
  %27 = load i32, ptr %17, align 8
  %28 = or i32 %27, 1
  br label %41

29:                                               ; preds = %.lr.ph.i
  %30 = getelementptr inbounds nuw i8, ptr %16, i64 16
  %31 = load i8, ptr %30, align 8, !range !4, !noundef !5
  %32 = trunc nuw i8 %31 to i1
  br i1 %32, label %33, label %37

33:                                               ; preds = %29
  %34 = inttoptr i64 %22 to ptr
  %35 = call ptr @pg_detoast_datum(ptr noundef %34) #7
  %36 = ptrtoint ptr %35 to i64
  br label %37

37:                                               ; preds = %33, %29
  %.0.i = phi i64 [ %36, %33 ], [ %22, %29 ]
  %38 = getelementptr inbounds nuw i8, ptr %17, i64 64
  store i64 %.0.i, ptr %38, align 8
  %39 = load i32, ptr %17, align 8
  %40 = and i32 %39, -2
  br label %41

41:                                               ; preds = %37, %25
  %storemerge.i = phi i32 [ %40, %37 ], [ %28, %25 ]
  store i32 %storemerge.i, ptr %17, align 8
  call void @llvm.lifetime.end.p0(i64 1, ptr nonnull %2) #7
  %indvars.iv.next.i = add nuw nsw i64 %indvars.iv.i, 1
  %exitcond.not.i = icmp eq i64 %indvars.iv.next.i, %wide.trip.count.i
  br i1 %exitcond.not.i, label %ExecIndexEvalRuntimeKeys.exit, label %.lr.ph.i, !llvm.loop !6

ExecIndexEvalRuntimeKeys.exit:                    ; preds = %41, %5
  store ptr %14, ptr @CurrentMemoryContext, align 8
  br label %42

42:                                               ; preds = %ExecIndexEvalRuntimeKeys.exit, %1
  %43 = getelementptr inbounds nuw i8, ptr %0, i64 284
  store i8 1, ptr %43, align 4
  %44 = getelementptr inbounds nuw i8, ptr %0, i64 312
  %45 = load ptr, ptr %44, align 8
  %.not19 = icmp eq ptr %45, null
  br i1 %.not19, label %.loopexit, label %.preheader

.preheader:                                       ; preds = %42
  %46 = getelementptr inbounds nuw i8, ptr %45, i64 16
  %47 = load ptr, ptr %46, align 8
  %.not2025 = icmp eq ptr %47, null
  br i1 %.not2025, label %.loopexit, label %.lr.ph

.lr.ph:                                           ; preds = %.preheader
  %48 = getelementptr inbounds nuw i8, ptr %0, i64 264
  %49 = getelementptr inbounds nuw i8, ptr %0, i64 352
  br label %50

50:                                               ; preds = %.lr.ph, %reorderqueue_pop.exit
  %51 = phi ptr [ %45, %.lr.ph ], [ %83, %reorderqueue_pop.exit ]
  %52 = call ptr @pairingheap_remove_first(ptr noundef nonnull %51) #7
  %53 = getelementptr inbounds nuw i8, ptr %52, i64 24
  %54 = load ptr, ptr %53, align 8
  %55 = load i32, ptr %48, align 8
  %56 = icmp sgt i32 %55, 0
  br i1 %56, label %.lr.ph.i22, label %reorderqueue_pop.exit

.lr.ph.i22:                                       ; preds = %50
  %57 = getelementptr inbounds nuw i8, ptr %52, i64 40
  %58 = getelementptr inbounds nuw i8, ptr %52, i64 32
  br label %59

59:                                               ; preds = %75, %.lr.ph.i22
  %60 = phi i32 [ %55, %.lr.ph.i22 ], [ %76, %75 ]
  %indvars.iv.i23 = phi i64 [ 0, %.lr.ph.i22 ], [ %indvars.iv.next.i24, %75 ]
  %61 = load ptr, ptr %49, align 8
  %62 = getelementptr inbounds nuw i8, ptr %61, i64 %indvars.iv.i23
  %63 = load i8, ptr %62, align 1, !range !4, !noundef !5
  %64 = trunc nuw i8 %63 to i1
  br i1 %64, label %75, label %65

65:                                               ; preds = %59
  %66 = load ptr, ptr %57, align 8
  %67 = getelementptr inbounds nuw i8, ptr %66, i64 %indvars.iv.i23
  %68 = load i8, ptr %67, align 1, !range !4, !noundef !5
  %69 = trunc nuw i8 %68 to i1
  br i1 %69, label %75, label %70

70:                                               ; preds = %65
  %71 = load ptr, ptr %58, align 8
  %72 = getelementptr inbounds nuw i64, ptr %71, i64 %indvars.iv.i23
  %73 = load i64, ptr %72, align 8
  %74 = inttoptr i64 %73 to ptr
  call void @pfree(ptr noundef %74) #7
  %.pre.i = load i32, ptr %48, align 8
  br label %75

75:                                               ; preds = %70, %65, %59
  %76 = phi i32 [ %60, %59 ], [ %60, %65 ], [ %.pre.i, %70 ]
  %indvars.iv.next.i24 = add nuw nsw i64 %indvars.iv.i23, 1
  %77 = sext i32 %76 to i64
  %78 = icmp slt i64 %indvars.iv.next.i24, %77
  br i1 %78, label %59, label %reorderqueue_pop.exit, !llvm.loop !8

reorderqueue_pop.exit:                            ; preds = %75, %50
  %79 = getelementptr inbounds nuw i8, ptr %52, i64 32
  %80 = load ptr, ptr %79, align 8
  call void @pfree(ptr noundef %80) #7
  %81 = getelementptr inbounds nuw i8, ptr %52, i64 40
  %82 = load ptr, ptr %81, align 8
  call void @pfree(ptr noundef %82) #7
  call void @pfree(ptr noundef %52) #7
  call void @heap_freetuple(ptr noundef %54) #7
  %83 = load ptr, ptr %44, align 8
  %84 = getelementptr inbounds nuw i8, ptr %83, i64 16
  %85 = load ptr, ptr %84, align 8
  %.not20 = icmp eq ptr %85, null
  br i1 %.not20, label %.loopexit, label %50, !llvm.loop !9

.loopexit:                                        ; preds = %reorderqueue_pop.exit, %.preheader, %42
  %86 = getelementptr inbounds nuw i8, ptr %0, i64 304
  %87 = load ptr, ptr %86, align 8
  %.not21 = icmp eq ptr %87, null
  br i1 %.not21, label %97, label %88

88:                                               ; preds = %.loopexit
  %89 = getelementptr inbounds nuw i8, ptr %0, i64 240
  %90 = load ptr, ptr %89, align 8
  %91 = getelementptr inbounds nuw i8, ptr %0, i64 248
  %92 = load i32, ptr %91, align 8
  %93 = getelementptr inbounds nuw i8, ptr %0, i64 256
  %94 = load ptr, ptr %93, align 8
  %95 = getelementptr inbounds nuw i8, ptr %0, i64 264
  %96 = load i32, ptr %95, align 8
  call void @index_rescan(ptr noundef nonnull %87, ptr noundef %90, i32 noundef %92, ptr noundef %94, i32 noundef %96) #7
  br label %97

97:                                               ; preds = %88, %.loopexit
  %98 = getelementptr inbounds nuw i8, ptr %0, i64 320
  store i8 0, ptr %98, align 8
  call void @ExecScanReScan(ptr noundef nonnull %0) #7
  ret void
}